; ModuleID = '28/1519.c'
source_filename = "28/1519.c"
target datalayout = "e-m:e-p270:32:32-p271:32:32-p272:64:64-i64:64-f80:128-n8:16:32:64-S128"
target triple = "x86_64-pc-linux-gnu"

@.str = private unnamed_addr constant [3 x i8] c"%d\00", align 1
@.str.1 = private unnamed_addr constant [2 x i8] c",\00", align 1

; Function Attrs: noinline nounwind uwtable
define dso_local i32 @main() #0 {
  %1 = alloca i32, align 4
  %2 = alloca [20000 x i8], align 16
  %3 = alloca i32, align 4
  %4 = alloca i32, align 4
  %5 = alloca i32, align 4
  %6 = alloca [30000 x i32], align 16
  %7 = alloca i32, align 4
  store i32 0, i32* %1, align 4
  store i32 0, i32* %4, align 4
  %8 = getelementptr inbounds [20000 x i8], [20000 x i8]* %2, i64 0, i64 0
  %9 = call i32 (i8*, ...) bitcast (i32 (...)* @gets to i32 (i8*, ...)*)(i8* %8)
  %10 = getelementptr inbounds [20000 x i8], [20000 x i8]* %2, i64 0, i64 0
  %11 = call i64 @strlen(i8* %10) #3
  %12 = trunc i64 %11 to i32
  store i32 %12, i32* %7, align 4
  %13 = getelementptr inbounds [20000 x i8], [20000 x i8]* %2, i64 0, i64 0
  %14 = load i8, i8* %13, align 16
  %15 = sext i8 %14 to i32
  %16 = icmp eq i32 %15, 32
  br i1 %16, label %17, label %79

17:                                               ; preds = %0
  store i32 1, i32* %3, align 4
  br label %18

18:                                               ; preds = %75, %17
  %19 = load i32, i32* %3, align 4
  %20 = load i32, i32* %7, align 4
  %21 = icmp slt i32 %19, %20
  br i1 %21, label %22, label %78

22:                                               ; preds = %18
  %23 = load i32, i32* %3, align 4
  %24 = sub nsw i32 %23, 1
  %25 = sext i32 %24 to i64
  %26 = getelementptr inbounds [20000 x i8], [20000 x i8]* %2, i64 0, i64 %25
  %27 = load i8, i8* %26, align 1
  %28 = sext i8 %27 to i32
  %29 = icmp eq i32 %28, 32
  br i1 %29, label %30, label %74

30:                                               ; preds = %22
  %31 = load i32, i32* %3, align 4
  %32 = sext i32 %31 to i64
  %33 = getelementptr inbounds [20000 x i8], [20000 x i8]* %2, i64 0, i64 %32
  %34 = load i8, i8* %33, align 1
  %35 = sext i8 %34 to i32
  %36 = icmp ne i32 %35, 32
  br i1 %36, label %37, label %74

37:                                               ; preds = %30
  %38 = load i32, i32* %4, align 4
  %39 = add nsw i32 %38, 1
  store i32 %39, i32* %4, align 4
  %40 = load i32, i32* %4, align 4
  %41 = sext i32 %40 to i64
  %42 = getelementptr inbounds [30000 x i32], [30000 x i32]* %6, i64 0, i64 %41
  store i32 0, i32* %42, align 4
  %43 = load i32, i32* %3, align 4
  store i32 %43, i32* %5, align 4
  br label %44

44:                                               ; preds = %70, %37
  %45 = load i32, i32* %5, align 4
  %46 = load i32, i32* %7, align 4
  %47 = icmp slt i32 %45, %46
  br i1 %47, label %48, label %73

48:                                               ; preds = %44
  %49 = load i32, i32* %4, align 4
  %50 = sext i32 %49 to i64
  %51 = getelementptr inbounds [30000 x i32], [30000 x i32]* %6, i64 0, i64 %50
  %52 = load i32, i32* %51, align 4
  %53 = add nsw i32 %52, 1
  store i32 %53, i32* %51, align 4
  %54 = load i32, i32* %5, align 4
  %55 = sext i32 %54 to i64
  %56 = getelementptr inbounds [20000 x i8], [20000 x i8]* %2, i64 0, i64 %55
  %57 = load i8, i8* %56, align 1
  %58 = sext i8 %57 to i32
  %59 = icmp ne i32 %58, 32
  br i1 %59, label %60, label %69

60:                                               ; preds = %48
  %61 = load i32, i32* %5, align 4
  %62 = add nsw i32 %61, 1
  %63 = sext i32 %62 to i64
  %64 = getelementptr inbounds [20000 x i8], [20000 x i8]* %2, i64 0, i64 %63
  %65 = load i8, i8* %64, align 1
  %66 = sext i8 %65 to i32
  %67 = icmp eq i32 %66, 32
  br i1 %67, label %68, label %69

68:                                               ; preds = %60
  br label %73

69:                                               ; preds = %60, %48
  br label %70

70:                                               ; preds = %69
  %71 = load i32, i32* %5, align 4
  %72 = add nsw i32 %71, 1
  store i32 %72, i32* %5, align 4
  br label %44

73:                                               ; preds = %68, %44
  br label %74

74:                                               ; preds = %73, %30, %22
  br label %75

75:                                               ; preds = %74
  %76 = load i32, i32* %3, align 4
  %77 = add nsw i32 %76, 1
  store i32 %77, i32* %3, align 4
  br label %18

78:                                               ; preds = %18
  br label %79

79:                                               ; preds = %78, %0
  %80 = getelementptr inbounds [20000 x i8], [20000 x i8]* %2, i64 0, i64 0
  %81 = load i8, i8* %80, align 16
  %82 = sext i8 %81 to i32
  %83 = icmp ne i32 %82, 32
  br i1 %83, label %84, label %152

84:                                               ; preds = %79
  store i32 0, i32* %3, align 4
  br label %85

85:                                               ; preds = %148, %84
  %86 = load i32, i32* %3, align 4
  %87 = load i32, i32* %7, align 4
  %88 = icmp slt i32 %86, %87
  br i1 %88, label %89, label %151

89:                                               ; preds = %85
  %90 = load i32, i32* %3, align 4
  %91 = icmp eq i32 %90, 0
  br i1 %91, label %110, label %92

92:                                               ; preds = %89
  %93 = load i32, i32* %3, align 4
  %94 = icmp sgt i32 %93, 0
  br i1 %94, label %95, label %147

95:                                               ; preds = %92
  %96 = load i32, i32* %3, align 4
  %97 = sub nsw i32 %96, 1
  %98 = sext i32 %97 to i64
  %99 = getelementptr inbounds [20000 x i8], [20000 x i8]* %2, i64 0, i64 %98
  %100 = load i8, i8* %99, align 1
  %101 = sext i8 %100 to i32
  %102 = icmp eq i32 %101, 32
  br i1 %102, label %103, label %147

103:                                              ; preds = %95
  %104 = load i32, i32* %3, align 4
  %105 = sext i32 %104 to i64
  %106 = getelementptr inbounds [20000 x i8], [20000 x i8]* %2, i64 0, i64 %105
  %107 = load i8, i8* %106, align 1
  %108 = sext i8 %107 to i32
  %109 = icmp ne i32 %108, 32
  br i1 %109, label %110, label %147

110:                                              ; preds = %103, %89
  %111 = load i32, i32* %4, align 4
  %112 = add nsw i32 %111, 1
  store i32 %112, i32* %4, align 4
  %113 = load i32, i32* %4, align 4
  %114 = sext i32 %113 to i64
  %115 = getelementptr inbounds [30000 x i32], [30000 x i32]* %6, i64 0, i64 %114
  store i32 0, i32* %115, align 4
  %116 = load i32, i32* %3, align 4
  store i32 %116, i32* %5, align 4
  br label %117

117:                                              ; preds = %143, %110
  %118 = load i32, i32* %5, align 4
  %119 = load i32, i32* %7, align 4
  %120 = icmp slt i32 %118, %119
  br i1 %120, label %121, label %146

121:                                              ; preds = %117
  %122 = load i32, i32* %4, align 4
  %123 = sext i32 %122 to i64
  %124 = getelementptr inbounds [30000 x i32], [30000 x i32]* %6, i64 0, i64 %123
  %125 = load i32, i32* %124, align 4
  %126 = add nsw i32 %125, 1
  store i32 %126, i32* %124, align 4
  %127 = load i32, i32* %5, align 4
  %128 = sext i32 %127 to i64
  %129 = getelementptr inbounds [20000 x i8], [20000 x i8]* %2, i64 0, i64 %128
  %130 = load i8, i8* %129, align 1
  %131 = sext i8 %130 to i32
  %132 = icmp ne i32 %131, 32
  br i1 %132, label %133, label %142

133:                                              ; preds = %121
  %134 = load i32, i32* %5, align 4
  %135 = add nsw i32 %134, 1
  %136 = sext i32 %135 to i64
  %137 = getelementptr inbounds [20000 x i8], [20000 x i8]* %2, i64 0, i64 %136
  %138 = load i8, i8* %137, align 1
  %139 = sext i8 %138 to i32
  %140 = icmp eq i32 %139, 32
  br i1 %140, label %141, label %142

141:                                              ; preds = %133
  br label %146

142:                                              ; preds = %133, %121
  br label %143

143:                                              ; preds = %142
  %144 = load i32, i32* %5, align 4
  %145 = add nsw i32 %144, 1
  store i32 %145, i32* %5, align 4
  br label %117

146:                                              ; preds = %141, %117
  br label %147

147:                                              ; preds = %146, %103, %95, %92
  br label %148

148:                                              ; preds = %147
  %149 = load i32, i32* %3, align 4
  %150 = add nsw i32 %149, 1
  store i32 %150, i32* %3, align 4
  br label %85

151:                                              ; preds = %85
  br label %152

152:                                              ; preds = %151, %79
  store i32 1, i32* %3, align 4
  br label %153

153:                                              ; preds = %165, %152
  %154 = load i32, i32* %3, align 4
  %155 = load i32, i32* %4, align 4
  %156 = sub nsw i32 %155, 1
  %157 = icmp sle i32 %154, %156
  br i1 %157, label %158, label %168

158:                                              ; preds = %153
  %159 = load i32, i32* %3, align 4
  %160 = sext i32 %159 to i64
  %161 = getelementptr inbounds [30000 x i32], [30000 x i32]* %6, i64 0, i64 %160
  %162 = load i32, i32* %161, align 4
  %163 = call i32 (i8*, ...) @printf(i8* getelementptr inbounds ([3 x i8], [3 x i8]* @.str, i64 0, i64 0), i32 %162)
  %164 = call i32 (i8*, ...) @printf(i8* getelementptr inbounds ([2 x i8], [2 x i8]* @.str.1, i64 0, i64 0))
  br label %165

165:                                              ; preds = %158
  %166 = load i32, i32* %3, align 4
  %167 = add nsw i32 %166, 1
  store i32 %167, i32* %3, align 4
  br label %153

168:                                              ; preds = %153
  %169 = load i32, i32* %4, align 4
  %170 = sext i32 %169 to i64
  %171 = getelementptr inbounds [30000 x i32], [30000 x i32]* %6, i64 0, i64 %170
  %172 = load i32, i32* %171, align 4
  %173 = call i32 (i8*, ...) @printf(i8* getelementptr inbounds ([3 x i8], [3 x i8]* @.str, i64 0, i64 0), i32 %172)
  ret i32 0
}

declare dso_local i32 @gets(...) #1

; Function Attrs: nounwind readonly
declare dso_local i64 @strlen(i8*) #2

declare dso_local i32 @printf(i8*, ...) #1


!llvm.module.flags = !{!0}
!llvm.ident = !{!1}

!0 = !{i32 1, !"wchar_size", i32 4}
!1 = !{!"clang version 10.0.0-4ubuntu1 "}
